; Function Attrs: inlinehint mustprogress nounwind willreturn uwtable
define internal fastcc void @dec_lex_level(ptr noundef captures(none) %0) unnamed_addr #10 {
  %2 = getelementptr inbounds nuw i8, ptr %0, i64 60
  %3 = load i32, ptr %2, align 4
  %4 = and i32 %3, 4
  %.not.i = icmp eq i32 %4, 0
  br i1 %.not.i, label %set_fname.exit, label %5

5:                                                ; preds = %1
  %6 = getelementptr inbounds nuw i8, ptr %0, i64 80
  %7 = load ptr, ptr %6, align 8
  %8 = getelementptr inbounds nuw i8, ptr %7, i64 24
  %9 = load ptr, ptr %8, align 8
  %10 = getelementptr inbounds nuw i8, ptr %0, i64 56
  %11 = load i32, ptr %10, align 8
  %12 = sext i32 %11 to i64
  %13 = getelementptr inbounds ptr, ptr %9, i64 %12
  %14 = load ptr, ptr %13, align 8
  tail call void @free(ptr noundef %14) #16
  br label %set_fname.exit

set_fname.exit:                                   ; preds = %1, %5
  %15 = getelementptr inbounds nuw i8, ptr %0, i64 80
  %16 = load ptr, ptr %15, align 8
  %17 = getelementptr inbounds nuw i8, ptr %16, i64 24
  %18 = load ptr, ptr %17, align 8
  %19 = getelementptr inbounds nuw i8, ptr %0, i64 56
  %20 = load i32, ptr %19, align 8
  %21 = sext i32 %20 to i64
  %22 = getelementptr inbounds ptr, ptr %18, i64 %21
  store ptr null, ptr %22, align 8
  %23 = load i32, ptr %19, align 8
  %24 = add i32 %23, -1
  store i32 %24, ptr %19, align 8
  ret void
}